; Function Attrs: nounwind uwtable
define ptr @l___private_Lean_Elab_MutualInductive_0__Lean_Elab_Command_isPropCandidate(ptr noundef %0, ptr noundef %1, ptr noundef %2, ptr noundef %3, ptr noundef %4, ptr noundef %5, ptr noundef %6) local_unnamed_addr #1 {
  %8 = tail call ptr @l_List_foldl___at___private_Lean_Elab_MutualInductive_0__Lean_Elab_Command_isPropCandidate___spec__3(ptr noundef nonnull inttoptr (i64 1 to ptr), ptr noundef %1)
  %9 = ptrtoint ptr %8 to i64
  %10 = and i64 %9, 1
  %.not = icmp eq i64 %10, 0
  br i1 %.not, label %12, label %lean_nat_eq.exit.thread, !prof !18

lean_nat_eq.exit.thread:                          ; preds = %7
  %11 = icmp eq ptr %8, inttoptr (i64 3 to ptr)
  br i1 %11, label %81, label %20

12:                                               ; preds = %7
  %13 = tail call zeroext i1 @lean_nat_big_eq(ptr noundef %8, ptr noundef nonnull inttoptr (i64 3 to ptr)) #5
  %14 = load i32, ptr %8, align 4, !tbaa !8
  %15 = icmp sgt i32 %14, 1
  br i1 %15, label %16, label %18, !prof !11

16:                                               ; preds = %12
  %17 = add nsw i32 %14, -1
  store i32 %17, ptr %8, align 4, !tbaa !8
  br i1 %13, label %81, label %20

18:                                               ; preds = %12
  %.not.i = icmp eq i32 %14, 0
  br i1 %.not.i, label %lean_dec.exit32, label %19

19:                                               ; preds = %18
  tail call void @lean_dec_ref_cold(ptr noundef nonnull %8) #5
  br i1 %13, label %81, label %20

lean_dec.exit32:                                  ; preds = %18
  br i1 %13, label %81, label %20

20:                                               ; preds = %19, %16, %lean_nat_eq.exit.thread, %lean_dec.exit32
  %21 = ptrtoint ptr %5 to i64
  %22 = and i64 %21, 1
  %.not46 = icmp eq i64 %22, 0
  br i1 %.not46, label %23, label %lean_dec.exit31

23:                                               ; preds = %20
  %24 = load i32, ptr %5, align 4, !tbaa !8
  %25 = icmp sgt i32 %24, 1
  br i1 %25, label %26, label %28, !prof !11

26:                                               ; preds = %23
  %27 = add nsw i32 %24, -1
  store i32 %27, ptr %5, align 4, !tbaa !8
  br label %lean_dec.exit31

28:                                               ; preds = %23
  %.not.i33 = icmp eq i32 %24, 0
  br i1 %.not.i33, label %lean_dec.exit31, label %29

29:                                               ; preds = %28
  tail call void @lean_dec_ref_cold(ptr noundef nonnull %5) #5
  br label %lean_dec.exit31

lean_dec.exit31:                                  ; preds = %29, %28, %26, %20
  %30 = ptrtoint ptr %4 to i64
  %31 = and i64 %30, 1
  %.not47 = icmp eq i64 %31, 0
  br i1 %.not47, label %32, label %lean_dec.exit30

32:                                               ; preds = %lean_dec.exit31
  %33 = load i32, ptr %4, align 4, !tbaa !8
  %34 = icmp sgt i32 %33, 1
  br i1 %34, label %35, label %37, !prof !11

35:                                               ; preds = %32
  %36 = add nsw i32 %33, -1
  store i32 %36, ptr %4, align 4, !tbaa !8
  br label %lean_dec.exit30

37:                                               ; preds = %32
  %.not.i35 = icmp eq i32 %33, 0
  br i1 %.not.i35, label %lean_dec.exit30, label %38

38:                                               ; preds = %37
  tail call void @lean_dec_ref_cold(ptr noundef nonnull %4) #5
  br label %lean_dec.exit30

lean_dec.exit30:                                  ; preds = %38, %37, %35, %lean_dec.exit31
  %39 = ptrtoint ptr %3 to i64
  %40 = and i64 %39, 1
  %.not48 = icmp eq i64 %40, 0
  br i1 %.not48, label %41, label %lean_dec.exit29

41:                                               ; preds = %lean_dec.exit30
  %42 = load i32, ptr %3, align 4, !tbaa !8
  %43 = icmp sgt i32 %42, 1
  br i1 %43, label %44, label %46, !prof !11

44:                                               ; preds = %41
  %45 = add nsw i32 %42, -1
  store i32 %45, ptr %3, align 4, !tbaa !8
  br label %lean_dec.exit29

46:                                               ; preds = %41
  %.not.i37 = icmp eq i32 %42, 0
  br i1 %.not.i37, label %lean_dec.exit29, label %47

47:                                               ; preds = %46
  tail call void @lean_dec_ref_cold(ptr noundef nonnull %3) #5
  br label %lean_dec.exit29

lean_dec.exit29:                                  ; preds = %47, %46, %44, %lean_dec.exit30
  %48 = ptrtoint ptr %2 to i64
  %49 = and i64 %48, 1
  %.not49 = icmp eq i64 %49, 0
  br i1 %.not49, label %50, label %lean_dec.exit28

50:                                               ; preds = %lean_dec.exit29
  %51 = load i32, ptr %2, align 4, !tbaa !8
  %52 = icmp sgt i32 %51, 1
  br i1 %52, label %53, label %55, !prof !11

53:                                               ; preds = %50
  %54 = add nsw i32 %51, -1
  store i32 %54, ptr %2, align 4, !tbaa !8
  br label %lean_dec.exit28

55:                                               ; preds = %50
  %.not.i39 = icmp eq i32 %51, 0
  br i1 %.not.i39, label %lean_dec.exit28, label %56

56:                                               ; preds = %55
  tail call void @lean_dec_ref_cold(ptr noundef nonnull %2) #5
  br label %lean_dec.exit28

lean_dec.exit28:                                  ; preds = %56, %55, %53, %lean_dec.exit29
  %57 = ptrtoint ptr %1 to i64
  %58 = and i64 %57, 1
  %.not50 = icmp eq i64 %58, 0
  br i1 %.not50, label %59, label %lean_dec.exit27

59:                                               ; preds = %lean_dec.exit28
  %60 = load i32, ptr %1, align 4, !tbaa !8
  %61 = icmp sgt i32 %60, 1
  br i1 %61, label %62, label %64, !prof !11

62:                                               ; preds = %59
  %63 = add nsw i32 %60, -1
  store i32 %63, ptr %1, align 4, !tbaa !8
  br label %lean_dec.exit27

64:                                               ; preds = %59
  %.not.i41 = icmp eq i32 %60, 0
  br i1 %.not.i41, label %lean_dec.exit27, label %65

65:                                               ; preds = %64
  tail call void @lean_dec_ref_cold(ptr noundef nonnull %1) #5
  br label %lean_dec.exit27

lean_dec.exit27:                                  ; preds = %65, %64, %62, %lean_dec.exit28
  %66 = ptrtoint ptr %0 to i64
  %67 = and i64 %66, 1
  %.not51 = icmp eq i64 %67, 0
  br i1 %.not51, label %68, label %lean_dec.exit

68:                                               ; preds = %lean_dec.exit27
  %69 = load i32, ptr %0, align 4, !tbaa !8
  %70 = icmp sgt i32 %69, 1
  br i1 %70, label %71, label %73, !prof !11

71:                                               ; preds = %68
  %72 = add nsw i32 %69, -1
  store i32 %72, ptr %0, align 4, !tbaa !8
  br label %lean_dec.exit

73:                                               ; preds = %68
  %.not.i43 = icmp eq i32 %69, 0
  br i1 %.not.i43, label %lean_dec.exit, label %74

74:                                               ; preds = %73
  tail call void @lean_dec_ref_cold(ptr noundef nonnull %0) #5
  br label %lean_dec.exit

lean_dec.exit:                                    ; preds = %74, %73, %71, %lean_dec.exit27
  tail call void @lean_inc_heartbeat() #5
  %75 = tail call noalias ptr @mi_malloc_small(i64 noundef 24) #5
  %76 = icmp eq ptr %75, null
  br i1 %76, label %77, label %lean_alloc_ctor.exit

77:                                               ; preds = %lean_dec.exit
  tail call void @lean_internal_panic_out_of_memory() #6
  unreachable

lean_alloc_ctor.exit:                             ; preds = %lean_dec.exit
  %78 = getelementptr inbounds nuw i8, ptr %75, i64 4
  store i32 1, ptr %75, align 4, !tbaa !8
  store i32 131096, ptr %78, align 4
  %79 = getelementptr inbounds nuw i8, ptr %75, i64 8
  store ptr inttoptr (i64 1 to ptr), ptr %79, align 8, !tbaa !12
  %80 = getelementptr inbounds nuw i8, ptr %75, i64 16
  store ptr %6, ptr %80, align 8, !tbaa !12
  br label %83

81:                                               ; preds = %19, %16, %lean_nat_eq.exit.thread, %lean_dec.exit32
  %82 = tail call ptr @l___private_Lean_Elab_MutualInductive_0__Lean_Elab_Command_isPropCandidate___lambda__2(ptr noundef %0, ptr noundef %1, ptr nonnull poison, ptr noundef %2, ptr noundef %3, ptr noundef %4, ptr noundef %5, ptr noundef %6)
  br label %83

83:                                               ; preds = %81, %lean_alloc_ctor.exit
  %.0 = phi ptr [ %75, %lean_alloc_ctor.exit ], [ %82, %81 ]
  ret ptr %.0
}